target datalayout = "e-m:e-p270:32:32-p271:32:32-p272:64:64-i64:64-i128:128-f80:128-n8:16:32:64-S128"
target triple = "x86_64-pc-linux-gnu"

@_ZN6google19g_logging_fail_funcE = hidden global ptr @abort, align 8

; Function Attrs: mustprogress noreturn uwtable
define void @_ZN6google10LogMessage4FailEv() #17 align 2 {
  %1 = load ptr, ptr @_ZN6google19g_logging_fail_funcE, align 8, !tbaa !8
  call void %1() #37
  unreachable
}

; Function Attrs: mustprogress noreturn uwtable
define void @_ZN6google15LogMessageFatalD2Ev(ptr noundef nonnull align 8 dereferenceable(96) %0) unnamed_addr #17 align 2 personality ptr @__gxx_personality_v0 {
  %2 = alloca ptr, align 8
  %3 = alloca ptr, align 8
  %4 = alloca i32, align 4
  store ptr %0, ptr %2, align 8, !tbaa !247
  %5 = load ptr, ptr %2, align 8
  invoke void @_ZN6google10LogMessage5FlushEv(ptr noundef nonnull align 8 dereferenceable(96) %5)
          to label %6 unwind label %8

6:                                                ; preds = %1
  invoke void @_ZN6google10LogMessage4FailEv() #37
          to label %7 unwind label %8

7:                                                ; preds = %6
  unreachable

8:                                                ; preds = %6, %1
  %9 = landingpad { ptr, i32 }
          cleanup
  %10 = extractvalue { ptr, i32 } %9, 0
  store ptr %10, ptr %3, align 8
  %11 = extractvalue { ptr, i32 } %9, 1
  store i32 %11, ptr %4, align 4
  invoke void @_ZN6google10LogMessageD2Ev(ptr noundef nonnull align 8 dereferenceable(96) %5)
          to label %12 unwind label %18

12:                                               ; preds = %8
  br label %13

13:                                               ; preds = %12
  %14 = load ptr, ptr %3, align 8
  %15 = load i32, ptr %4, align 4
  %16 = insertvalue { ptr, i32 } poison, ptr %14, 0
  %17 = insertvalue { ptr, i32 } %16, i32 %15, 1
  resume { ptr, i32 } %17

18:                                               ; preds = %8
  %19 = landingpad { ptr, i32 }
          catch ptr null
  %20 = extractvalue { ptr, i32 } %19, 0
  call void @__clang_call_terminate(ptr %20) #33
  unreachable
}