; Function Attrs: mustprogress noreturn uwtable
define void @_ZN6google15LogMessageFatalD2Ev(ptr noundef nonnull align 8 dereferenceable(96) %0) unnamed_addr #24 align 2 personality ptr @__gxx_personality_v0 {
  invoke void @_ZN6google10LogMessage5FlushEv(ptr noundef nonnull align 8 dereferenceable(96) %0)
          to label %2 unwind label %4

2:                                                ; preds = %1
  %3 = load ptr, ptr @_ZN6google19g_logging_fail_funcE, align 8, !tbaa !143
  invoke void %3() #52
          to label %.noexc unwind label %4

.noexc:                                           ; preds = %2
  unreachable

4:                                                ; preds = %2, %1
  %5 = landingpad { ptr, i32 }
          cleanup
  invoke void @_ZN6google10LogMessageD2Ev(ptr noundef nonnull align 8 dereferenceable(96) %0)
          to label %6 unwind label %7

6:                                                ; preds = %4
  resume { ptr, i32 } %5

7:                                                ; preds = %4
  %8 = landingpad { ptr, i32 }
          catch ptr null
  %9 = extractvalue { ptr, i32 } %8, 0
  tail call void @__clang_call_terminate(ptr %9) #50
  unreachable
}